target datalayout = "e-m:e-p270:32:32-p271:32:32-p272:64:64-i64:64-i128:128-f80:128-n8:16:32:64-S128"
target triple = "x86_64-pc-linux-gnu"

%struct.Vec_Int_t_ = type { i32, i32, ptr }
%struct.Psr_Ntk_t_ = type { i32, i8, ptr, %struct.Vec_Int_t_, %struct.Vec_Int_t_, %struct.Vec_Int_t_, %struct.Vec_Int_t_, %struct.Vec_Int_t_, %struct.Vec_Int_t_, %struct.Vec_Int_t_, %struct.Vec_Int_t_, %struct.Vec_Int_t_, %struct.Vec_Int_t_, %struct.Vec_Int_t_, %struct.Vec_Int_t_, %struct.Vec_Int_t_ }

@Psr_BoxSignals.V = internal global %struct.Vec_Int_t_ zeroinitializer, align 8

; Function Attrs: inlinehint nounwind uwtable
define internal ptr @Vec_IntEntryP(ptr noundef %0, i32 noundef %1) #3 {
  %3 = alloca ptr, align 8
  %4 = alloca i32, align 4
  store ptr %0, ptr %3, align 8, !tbaa !12
  store i32 %1, ptr %4, align 4, !tbaa !10
  %5 = load ptr, ptr %3, align 8, !tbaa !12
  %6 = getelementptr inbounds nuw %struct.Vec_Int_t_, ptr %5, i32 0, i32 2
  %7 = load ptr, ptr %6, align 8, !tbaa !20
  %8 = load i32, ptr %4, align 4, !tbaa !10
  %9 = sext i32 %8 to i64
  %10 = getelementptr inbounds i32, ptr %7, i64 %9
  ret ptr %10
}

; Function Attrs: inlinehint nounwind uwtable
define internal i32 @Vec_IntEntry(ptr noundef %0, i32 noundef %1) #3 {
  %3 = alloca ptr, align 8
  %4 = alloca i32, align 4
  store ptr %0, ptr %3, align 8, !tbaa !12
  store i32 %1, ptr %4, align 4, !tbaa !10
  %5 = load ptr, ptr %3, align 8, !tbaa !12
  %6 = getelementptr inbounds nuw %struct.Vec_Int_t_, ptr %5, i32 0, i32 2
  %7 = load ptr, ptr %6, align 8, !tbaa !20
  %8 = load i32, ptr %4, align 4, !tbaa !10
  %9 = sext i32 %8 to i64
  %10 = getelementptr inbounds i32, ptr %7, i64 %9
  %11 = load i32, ptr %10, align 4, !tbaa !10
  ret i32 %11
}

; Function Attrs: inlinehint nounwind uwtable
define internal i32 @Psr_BoxHand(ptr noundef %0, i32 noundef %1) #3 {
  %3 = alloca ptr, align 8
  %4 = alloca i32, align 4
  store ptr %0, ptr %3, align 8, !tbaa !3
  store i32 %1, ptr %4, align 4, !tbaa !10
  %5 = load ptr, ptr %3, align 8, !tbaa !3
  %6 = getelementptr inbounds nuw %struct.Psr_Ntk_t_, ptr %5, i32 0, i32 15
  %7 = load i32, ptr %4, align 4, !tbaa !10
  %8 = call i32 @Vec_IntEntry(ptr noundef %6, i32 noundef %7)
  ret i32 %8
}

; Function Attrs: inlinehint nounwind uwtable
define internal ptr @Psr_BoxArray(ptr noundef %0, i32 noundef %1) #3 {
  %3 = alloca ptr, align 8
  %4 = alloca i32, align 4
  store ptr %0, ptr %3, align 8, !tbaa !3
  store i32 %1, ptr %4, align 4, !tbaa !10
  %5 = load ptr, ptr %3, align 8, !tbaa !3
  %6 = getelementptr inbounds nuw %struct.Psr_Ntk_t_, ptr %5, i32 0, i32 14
  %7 = load ptr, ptr %3, align 8, !tbaa !3
  %8 = load i32, ptr %4, align 4, !tbaa !10
  %9 = call i32 @Psr_BoxHand(ptr noundef %7, i32 noundef %8)
  %10 = add nsw i32 %9, 3
  %11 = call ptr @Vec_IntEntryP(ptr noundef %6, i32 noundef %10)
  ret ptr %11
}

; Function Attrs: inlinehint nounwind uwtable
define internal i32 @Psr_BoxSize(ptr noundef %0, i32 noundef %1) #3 {
  %3 = alloca ptr, align 8
  %4 = alloca i32, align 4
  store ptr %0, ptr %3, align 8, !tbaa !3
  store i32 %1, ptr %4, align 4, !tbaa !10
  %5 = load ptr, ptr %3, align 8, !tbaa !3
  %6 = getelementptr inbounds nuw %struct.Psr_Ntk_t_, ptr %5, i32 0, i32 14
  %7 = load ptr, ptr %3, align 8, !tbaa !3
  %8 = load i32, ptr %4, align 4, !tbaa !10
  %9 = call i32 @Psr_BoxHand(ptr noundef %7, i32 noundef %8)
  %10 = call i32 @Vec_IntEntry(ptr noundef %6, i32 noundef %9)
  %11 = sub nsw i32 %10, 2
  ret i32 %11
}

; Function Attrs: inlinehint nounwind uwtable
define internal i32 @Vec_IntSize(ptr noundef %0) #3 {
  %2 = alloca ptr, align 8
  store ptr %0, ptr %2, align 8, !tbaa !12
  %3 = load ptr, ptr %2, align 8, !tbaa !12
  %4 = getelementptr inbounds nuw %struct.Vec_Int_t_, ptr %3, i32 0, i32 1
  %5 = load i32, ptr %4, align 4, !tbaa !19
  ret i32 %5
}

; Function Attrs: inlinehint nounwind uwtable
define internal i32 @Psr_NtkPoNum(ptr noundef %0) #3 {
  %2 = alloca ptr, align 8
  store ptr %0, ptr %2, align 8, !tbaa !3
  %3 = load ptr, ptr %2, align 8, !tbaa !3
  %4 = getelementptr inbounds nuw %struct.Psr_Ntk_t_, ptr %3, i32 0, i32 6
  %5 = call i32 @Vec_IntSize(ptr noundef %4)
  ret i32 %5
}

; Function Attrs: inlinehint nounwind uwtable
define internal i32 @Psr_NtkPiNum(ptr noundef %0) #3 {
  %2 = alloca ptr, align 8
  store ptr %0, ptr %2, align 8, !tbaa !3
  %3 = load ptr, ptr %2, align 8, !tbaa !3
  %4 = getelementptr inbounds nuw %struct.Psr_Ntk_t_, ptr %3, i32 0, i32 5
  %5 = call i32 @Vec_IntSize(ptr noundef %4)
  ret i32 %5
}

; Function Attrs: inlinehint nounwind uwtable
define internal i32 @Psr_NtkPioNum(ptr noundef %0) #3 {
  %2 = alloca ptr, align 8
  store ptr %0, ptr %2, align 8, !tbaa !3
  %3 = load ptr, ptr %2, align 8, !tbaa !3
  %4 = getelementptr inbounds nuw %struct.Psr_Ntk_t_, ptr %3, i32 0, i32 4
  %5 = call i32 @Vec_IntSize(ptr noundef %4)
  ret i32 %5
}

; Function Attrs: inlinehint nounwind uwtable
define internal i32 @Psr_BoxIONum(ptr noundef %0, i32 noundef %1) #3 {
  %3 = alloca ptr, align 8
  %4 = alloca i32, align 4
  store ptr %0, ptr %3, align 8, !tbaa !3
  store i32 %1, ptr %4, align 4, !tbaa !10
  %5 = load ptr, ptr %3, align 8, !tbaa !3
  %6 = load i32, ptr %4, align 4, !tbaa !10
  %7 = call i32 @Psr_BoxSize(ptr noundef %5, i32 noundef %6)
  %8 = sdiv i32 %7, 2
  ret i32 %8
}

; Function Attrs: inlinehint nounwind uwtable
define internal ptr @Psr_BoxSignals(ptr noundef %0, i32 noundef %1) #3 {
  %3 = alloca ptr, align 8
  %4 = alloca i32, align 4
  store ptr %0, ptr %3, align 8, !tbaa !3
  store i32 %1, ptr %4, align 4, !tbaa !10
  %5 = load ptr, ptr %3, align 8, !tbaa !3
  %6 = load i32, ptr %4, align 4, !tbaa !10
  %7 = call i32 @Psr_BoxSize(ptr noundef %5, i32 noundef %6)
  store i32 %7, ptr @Psr_BoxSignals.V, align 8, !tbaa !16
  store i32 %7, ptr getelementptr inbounds nuw (%struct.Vec_Int_t_, ptr @Psr_BoxSignals.V, i32 0, i32 1), align 4, !tbaa !19
  %8 = load ptr, ptr %3, align 8, !tbaa !3
  %9 = load i32, ptr %4, align 4, !tbaa !10
  %10 = call ptr @Psr_BoxArray(ptr noundef %8, i32 noundef %9)
  store ptr %10, ptr getelementptr inbounds nuw (%struct.Vec_Int_t_, ptr @Psr_BoxSignals.V, i32 0, i32 2), align 8, !tbaa !20
  ret ptr @Psr_BoxSignals.V
}

; Function Attrs: inlinehint nounwind uwtable
define internal i32 @Psr_NtkBoxNum(ptr noundef %0) #3 {
  %2 = alloca ptr, align 8
  store ptr %0, ptr %2, align 8, !tbaa !3
  %3 = load ptr, ptr %2, align 8, !tbaa !3
  %4 = getelementptr inbounds nuw %struct.Psr_Ntk_t_, ptr %3, i32 0, i32 15
  %5 = call i32 @Vec_IntSize(ptr noundef %4)
  ret i32 %5
}

; Function Attrs: inlinehint nounwind uwtable
define internal i32 @Psr_NtkObjNum(ptr noundef %0) #3 {
  %2 = alloca ptr, align 8
  store ptr %0, ptr %2, align 8, !tbaa !3
  %3 = load ptr, ptr %2, align 8, !tbaa !3
  %4 = call i32 @Psr_NtkPioNum(ptr noundef %3)
  %5 = load ptr, ptr %2, align 8, !tbaa !3
  %6 = call i32 @Psr_NtkPiNum(ptr noundef %5)
  %7 = add nsw i32 %4, %6
  %8 = load ptr, ptr %2, align 8, !tbaa !3
  %9 = call i32 @Psr_NtkPoNum(ptr noundef %8)
  %10 = add nsw i32 %7, %9
  %11 = load ptr, ptr %2, align 8, !tbaa !3
  %12 = call i32 @Psr_NtkBoxNum(ptr noundef %11)
  %13 = add nsw i32 %10, %12
  ret i32 %13
}

; Function Attrs: nounwind uwtable
define i32 @Psr_NtkCountObjects(ptr noundef %0) #0 {
  %2 = alloca ptr, align 8
  %3 = alloca ptr, align 8
  %4 = alloca i32, align 4
  %5 = alloca i32, align 4
  store ptr %0, ptr %2, align 8, !tbaa !3
  call void @llvm.lifetime.start.p0(i64 8, ptr %3) #10
  call void @llvm.lifetime.start.p0(i64 4, ptr %4) #10
  call void @llvm.lifetime.start.p0(i64 4, ptr %5) #10
  %6 = load ptr, ptr %2, align 8, !tbaa !3
  %7 = call i32 @Psr_NtkObjNum(ptr noundef %6)
  store i32 %7, ptr %5, align 4, !tbaa !10
  store i32 0, ptr %4, align 4, !tbaa !10
  br label %8

8:                                                ; preds = %26, %1
  %9 = load i32, ptr %4, align 4, !tbaa !10
  %10 = load ptr, ptr %2, align 8, !tbaa !3
  %11 = call i32 @Psr_NtkBoxNum(ptr noundef %10)
  %12 = icmp slt i32 %9, %11
  br i1 %12, label %13, label %18

13:                                               ; preds = %8
  %14 = load ptr, ptr %2, align 8, !tbaa !3
  %15 = load i32, ptr %4, align 4, !tbaa !10
  %16 = call ptr @Psr_BoxSignals(ptr noundef %14, i32 noundef %15)
  store ptr %16, ptr %3, align 8, !tbaa !12
  %17 = icmp ne ptr %16, null
  br label %18

18:                                               ; preds = %13, %8
  %19 = phi i1 [ false, %8 ], [ %17, %13 ]
  br i1 %19, label %20, label %29

20:                                               ; preds = %18
  %21 = load ptr, ptr %2, align 8, !tbaa !3
  %22 = load i32, ptr %4, align 4, !tbaa !10
  %23 = call i32 @Psr_BoxIONum(ptr noundef %21, i32 noundef %22)
  %24 = load i32, ptr %5, align 4, !tbaa !10
  %25 = add nsw i32 %24, %23
  store i32 %25, ptr %5, align 4, !tbaa !10
  br label %26

26:                                               ; preds = %20
  %27 = load i32, ptr %4, align 4, !tbaa !10
  %28 = add nsw i32 %27, 1
  store i32 %28, ptr %4, align 4, !tbaa !10
  br label %8, !llvm.loop !24

29:                                               ; preds = %18
  %30 = load i32, ptr %5, align 4, !tbaa !10
  call void @llvm.lifetime.end.p0(i64 4, ptr %5) #10
  call void @llvm.lifetime.end.p0(i64 4, ptr %4) #10
  call void @llvm.lifetime.end.p0(i64 8, ptr %3) #10
  ret i32 %30
}