; Function Attrs: nofree norecurse nosync nounwind memory(readwrite, argmem: read, inaccessiblemem: none) uwtable
define i32 @Psr_NtkCountObjects(ptr noundef readonly captures(none) %0) local_unnamed_addr #3 {
  %2 = getelementptr i8, ptr %0, i64 36
  %.val4.i = load i32, ptr %2, align 4, !tbaa !3
  %3 = getelementptr i8, ptr %0, i64 52
  %.val5.i = load i32, ptr %3, align 4, !tbaa !3
  %4 = add nsw i32 %.val5.i, %.val4.i
  %5 = getelementptr i8, ptr %0, i64 68
  %.val6.i = load i32, ptr %5, align 4, !tbaa !3
  %6 = add nsw i32 %4, %.val6.i
  %7 = getelementptr i8, ptr %0, i64 212
  %.val.i = load i32, ptr %7, align 4, !tbaa !3
  %8 = add nsw i32 %6, %.val.i
  %9 = icmp sgt i32 %.val.i, 0
  br i1 %9, label %.lr.ph, label %.critedge

.lr.ph:                                           ; preds = %1
  %10 = getelementptr i8, ptr %0, i64 200
  %11 = getelementptr i8, ptr %0, i64 216
  %.val10.pre = load ptr, ptr %10, align 8, !tbaa !10
  %.val11.pre = load ptr, ptr %11, align 8, !tbaa !10
  br label %12

12:                                               ; preds = %.lr.ph, %12
  %.val11 = phi ptr [ %.val11.pre, %.lr.ph ], [ %.val13, %12 ]
  %.val10 = phi ptr [ %.val10.pre, %.lr.ph ], [ %.val12, %12 ]
  %indvars.iv = phi i64 [ 0, %.lr.ph ], [ %indvars.iv.next, %12 ]
  %.016 = phi i32 [ %8, %.lr.ph ], [ %30, %12 ]
  %13 = getelementptr inbounds nuw i32, ptr %.val11, i64 %indvars.iv
  %14 = load i32, ptr %13, align 4, !tbaa !11
  %15 = sext i32 %14 to i64
  %16 = getelementptr inbounds i32, ptr %.val10, i64 %15
  %17 = load i32, ptr %16, align 4, !tbaa !11
  %18 = add nsw i32 %17, -2
  store i32 %18, ptr @Psr_BoxSignals.V, align 8, !tbaa !12
  store i32 %18, ptr getelementptr inbounds nuw (i8, ptr @Psr_BoxSignals.V, i64 4), align 4, !tbaa !3
  %19 = load i32, ptr %13, align 4, !tbaa !11
  %20 = sext i32 %19 to i64
  %21 = getelementptr i32, ptr %.val10, i64 %20
  %22 = getelementptr i8, ptr %21, i64 12
  store ptr %22, ptr getelementptr inbounds nuw (i8, ptr @Psr_BoxSignals.V, i64 8), align 8, !tbaa !10
  %.val12 = load ptr, ptr %10, align 8, !tbaa !10
  %.val13 = load ptr, ptr %11, align 8, !tbaa !10
  %23 = getelementptr inbounds nuw i32, ptr %.val13, i64 %indvars.iv
  %24 = load i32, ptr %23, align 4, !tbaa !11
  %25 = sext i32 %24 to i64
  %26 = getelementptr inbounds i32, ptr %.val12, i64 %25
  %27 = load i32, ptr %26, align 4, !tbaa !11
  %28 = add nsw i32 %27, -2
  %29 = sdiv i32 %28, 2
  %30 = add nsw i32 %29, %.016
  %indvars.iv.next = add nuw nsw i64 %indvars.iv, 1
  %.val = load i32, ptr %7, align 4, !tbaa !3
  %31 = sext i32 %.val to i64
  %32 = icmp slt i64 %indvars.iv.next, %31
  br i1 %32, label %12, label %.critedge, !llvm.loop !18

.critedge:                                        ; preds = %12, %1
  %.0.lcssa = phi i32 [ %8, %1 ], [ %30, %12 ]
  ret i32 %.0.lcssa
}